target datalayout = "e-m:e-p270:32:32-p271:32:32-p272:64:64-i64:64-i128:128-f80:128-n8:16:32:64-S128"
target triple = "x86_64-pc-linux-gnu"

%struct.black_TWorker_ = type { i32, i32, i32, i32, i32, ptr, ptr, ptr, ptr, i32, i8, i64, i64, i64, i64, i16, i32, ptr, ptr, ptr, i32, %struct.FT_Outline_, i32, i32, i32, ptr, ptr, ptr, ptr, ptr, ptr }
%struct.FT_Outline_ = type { i16, i16, ptr, ptr, ptr, i32 }
%struct.TProfile_ = type { ptr, ptr, i32, i32, i32, i16, i64, [1 x i64] }

; Function Attrs: nounwind uwtable
define internal signext i8 @Insert_Y_Turns(ptr noundef %0, i32 noundef %1, i32 noundef %2) #0 {
  %4 = alloca i8, align 1
  %5 = alloca ptr, align 8
  %6 = alloca i32, align 4
  %7 = alloca i32, align 4
  %8 = alloca i32, align 4
  %9 = alloca ptr, align 8
  %10 = alloca i32, align 4
  %11 = alloca i32, align 4
  store ptr %0, ptr %5, align 8, !tbaa !105
  store i32 %1, ptr %6, align 4, !tbaa !15
  store i32 %2, ptr %7, align 4, !tbaa !15
  call void @llvm.lifetime.start.p0(i64 4, ptr %8) #5
  %12 = load ptr, ptr %5, align 8, !tbaa !105
  %13 = getelementptr inbounds nuw %struct.black_TWorker_, ptr %12, i32 0, i32 16
  %14 = load i32, ptr %13, align 4, !tbaa !131
  store i32 %14, ptr %8, align 4, !tbaa !15
  call void @llvm.lifetime.start.p0(i64 8, ptr %9) #5
  %15 = load ptr, ptr %5, align 8, !tbaa !105
  %16 = getelementptr inbounds nuw %struct.black_TWorker_, ptr %15, i32 0, i32 7
  %17 = load ptr, ptr %16, align 8, !tbaa !130
  store ptr %17, ptr %9, align 8, !tbaa !168
  %18 = load i32, ptr %8, align 4, !tbaa !15
  %19 = icmp eq i32 %18, 0
  br i1 %19, label %29, label %20

20:                                               ; preds = %3
  %21 = load i32, ptr %7, align 4, !tbaa !15
  %22 = sext i32 %21 to i64
  %23 = load ptr, ptr %9, align 8, !tbaa !168
  %24 = load i32, ptr %8, align 4, !tbaa !15
  %25 = sext i32 %24 to i64
  %26 = getelementptr inbounds i64, ptr %23, i64 %25
  %27 = load i64, ptr %26, align 8, !tbaa !23
  %28 = icmp sgt i64 %22, %27
  br i1 %28, label %29, label %36

29:                                               ; preds = %20, %3
  %30 = load i32, ptr %7, align 4, !tbaa !15
  %31 = sext i32 %30 to i64
  %32 = load ptr, ptr %9, align 8, !tbaa !168
  %33 = load i32, ptr %8, align 4, !tbaa !15
  %34 = sext i32 %33 to i64
  %35 = getelementptr inbounds i64, ptr %32, i64 %34
  store i64 %31, ptr %35, align 8, !tbaa !23
  br label %36

36:                                               ; preds = %29, %20
  br label %37

37:                                               ; preds = %52, %36
  %38 = load i32, ptr %8, align 4, !tbaa !15
  %39 = add nsw i32 %38, -1
  store i32 %39, ptr %8, align 4, !tbaa !15
  %40 = icmp ne i32 %38, 0
  br i1 %40, label %41, label %50

41:                                               ; preds = %37
  %42 = load i32, ptr %6, align 4, !tbaa !15
  %43 = sext i32 %42 to i64
  %44 = load ptr, ptr %9, align 8, !tbaa !168
  %45 = load i32, ptr %8, align 4, !tbaa !15
  %46 = sext i32 %45 to i64
  %47 = getelementptr inbounds i64, ptr %44, i64 %46
  %48 = load i64, ptr %47, align 8, !tbaa !23
  %49 = icmp slt i64 %43, %48
  br label %50

50:                                               ; preds = %41, %37
  %51 = phi i1 [ false, %37 ], [ %49, %41 ]
  br i1 %51, label %52, label %53

52:                                               ; preds = %50
  br label %37, !llvm.loop !172

53:                                               ; preds = %50
  %54 = load i32, ptr %8, align 4, !tbaa !15
  %55 = icmp slt i32 %54, 0
  br i1 %55, label %65, label %56

56:                                               ; preds = %53
  %57 = load i32, ptr %6, align 4, !tbaa !15
  %58 = sext i32 %57 to i64
  %59 = load ptr, ptr %9, align 8, !tbaa !168
  %60 = load i32, ptr %8, align 4, !tbaa !15
  %61 = sext i32 %60 to i64
  %62 = getelementptr inbounds i64, ptr %59, i64 %61
  %63 = load i64, ptr %62, align 8, !tbaa !23
  %64 = icmp sgt i64 %58, %63
  br i1 %64, label %65, label %104

65:                                               ; preds = %56, %53
  %66 = load ptr, ptr %5, align 8, !tbaa !105
  %67 = getelementptr inbounds nuw %struct.black_TWorker_, ptr %66, i32 0, i32 7
  %68 = load ptr, ptr %67, align 8, !tbaa !130
  %69 = getelementptr inbounds i64, ptr %68, i32 -1
  store ptr %69, ptr %67, align 8, !tbaa !130
  %70 = load ptr, ptr %5, align 8, !tbaa !105
  %71 = getelementptr inbounds nuw %struct.black_TWorker_, ptr %70, i32 0, i32 7
  %72 = load ptr, ptr %71, align 8, !tbaa !130
  %73 = load ptr, ptr %5, align 8, !tbaa !105
  %74 = getelementptr inbounds nuw %struct.black_TWorker_, ptr %73, i32 0, i32 8
  %75 = load ptr, ptr %74, align 8, !tbaa !129
  %76 = icmp ule ptr %72, %75
  br i1 %76, label %77, label %80

77:                                               ; preds = %65
  %78 = load ptr, ptr %5, align 8, !tbaa !105
  %79 = getelementptr inbounds nuw %struct.black_TWorker_, ptr %78, i32 0, i32 9
  store i32 98, ptr %79, align 8, !tbaa !126
  store i8 1, ptr %4, align 1
  store i32 1, ptr %10, align 4
  br label %105

80:                                               ; preds = %65
  br label %81

81:                                               ; preds = %95, %80
  call void @llvm.lifetime.start.p0(i64 4, ptr %11) #5
  %82 = load ptr, ptr %9, align 8, !tbaa !168
  %83 = load i32, ptr %8, align 4, !tbaa !15
  %84 = sext i32 %83 to i64
  %85 = getelementptr inbounds i64, ptr %82, i64 %84
  %86 = load i64, ptr %85, align 8, !tbaa !23
  %87 = trunc i64 %86 to i32
  store i32 %87, ptr %11, align 4, !tbaa !15
  %88 = load i32, ptr %6, align 4, !tbaa !15
  %89 = sext i32 %88 to i64
  %90 = load ptr, ptr %9, align 8, !tbaa !168
  %91 = load i32, ptr %8, align 4, !tbaa !15
  %92 = sext i32 %91 to i64
  %93 = getelementptr inbounds i64, ptr %90, i64 %92
  store i64 %89, ptr %93, align 8, !tbaa !23
  %94 = load i32, ptr %11, align 4, !tbaa !15
  store i32 %94, ptr %6, align 4, !tbaa !15
  call void @llvm.lifetime.end.p0(i64 4, ptr %11) #5
  br label %95

95:                                               ; preds = %81
  %96 = load i32, ptr %8, align 4, !tbaa !15
  %97 = add nsw i32 %96, -1
  store i32 %97, ptr %8, align 4, !tbaa !15
  %98 = icmp sge i32 %96, 0
  br i1 %98, label %81, label %99, !llvm.loop !173

99:                                               ; preds = %95
  %100 = load ptr, ptr %5, align 8, !tbaa !105
  %101 = getelementptr inbounds nuw %struct.black_TWorker_, ptr %100, i32 0, i32 16
  %102 = load i32, ptr %101, align 4, !tbaa !131
  %103 = add nsw i32 %102, 1
  store i32 %103, ptr %101, align 4, !tbaa !131
  br label %104

104:                                              ; preds = %99, %56
  store i8 0, ptr %4, align 1
  store i32 1, ptr %10, align 4
  br label %105

105:                                              ; preds = %104, %77
  call void @llvm.lifetime.end.p0(i64 8, ptr %9) #5
  call void @llvm.lifetime.end.p0(i64 4, ptr %8) #5
  %106 = load i8, ptr %4, align 1
  ret i8 %106
}

; Function Attrs: nounwind uwtable
define internal signext i8 @End_Profile(ptr noundef %0) #0 {
  %2 = alloca i8, align 1
  %3 = alloca ptr, align 8
  %4 = alloca ptr, align 8
  %5 = alloca i32, align 4
  %6 = alloca i32, align 4
  %7 = alloca i32, align 4
  %8 = alloca i32, align 4
  store ptr %0, ptr %3, align 8, !tbaa !105
  call void @llvm.lifetime.start.p0(i64 8, ptr %4) #5
  %9 = load ptr, ptr %3, align 8, !tbaa !105
  %10 = getelementptr inbounds nuw %struct.black_TWorker_, ptr %9, i32 0, i32 17
  %11 = load ptr, ptr %10, align 8, !tbaa !128
  store ptr %11, ptr %4, align 8, !tbaa !141
  call void @llvm.lifetime.start.p0(i64 4, ptr %5) #5
  %12 = load ptr, ptr %3, align 8, !tbaa !105
  %13 = getelementptr inbounds nuw %struct.black_TWorker_, ptr %12, i32 0, i32 8
  %14 = load ptr, ptr %13, align 8, !tbaa !129
  %15 = load ptr, ptr %4, align 8, !tbaa !141
  %16 = getelementptr inbounds nuw %struct.TProfile_, ptr %15, i32 0, i32 7
  %17 = getelementptr inbounds [1 x i64], ptr %16, i64 0, i64 0
  %18 = ptrtoint ptr %14 to i64
  %19 = ptrtoint ptr %17 to i64
  %20 = sub i64 %18, %19
  %21 = sdiv exact i64 %20, 8
  %22 = trunc i64 %21 to i32
  store i32 %22, ptr %5, align 4, !tbaa !15
  call void @llvm.lifetime.start.p0(i64 4, ptr %6) #5
  call void @llvm.lifetime.start.p0(i64 4, ptr %7) #5
  %23 = load i32, ptr %5, align 4, !tbaa !15
  %24 = icmp slt i32 %23, 0
  br i1 %24, label %25, label %31

25:                                               ; preds = %1
  br label %26

26:                                               ; preds = %25
  br label %27

27:                                               ; preds = %26
  br label %28

28:                                               ; preds = %27
  %29 = load ptr, ptr %3, align 8, !tbaa !105
  %30 = getelementptr inbounds nuw %struct.black_TWorker_, ptr %29, i32 0, i32 9
  store i32 99, ptr %30, align 8, !tbaa !126
  store i8 1, ptr %2, align 1
  store i32 1, ptr %8, align 4
  br label %182

31:                                               ; preds = %1
  %32 = load i32, ptr %5, align 4, !tbaa !15
  %33 = icmp sgt i32 %32, 0
  br i1 %33, label %34, label %181

34:                                               ; preds = %31
  br label %35

35:                                               ; preds = %34
  br label %36

36:                                               ; preds = %35
  br label %37

37:                                               ; preds = %36
  %38 = load i32, ptr %5, align 4, !tbaa !15
  %39 = load ptr, ptr %4, align 8, !tbaa !141
  %40 = getelementptr inbounds nuw %struct.TProfile_, ptr %39, i32 0, i32 3
  store i32 %38, ptr %40, align 4, !tbaa !148
  %41 = load ptr, ptr %4, align 8, !tbaa !141
  %42 = getelementptr inbounds nuw %struct.TProfile_, ptr %41, i32 0, i32 5
  %43 = load i16, ptr %42, align 4, !tbaa !138
  %44 = zext i16 %43 to i32
  %45 = and i32 %44, 8
  %46 = icmp ne i32 %45, 0
  br i1 %46, label %47, label %91

47:                                               ; preds = %37
  %48 = load ptr, ptr %3, align 8, !tbaa !105
  %49 = getelementptr inbounds nuw %struct.black_TWorker_, ptr %48, i32 0, i32 12
  %50 = load i64, ptr %49, align 8, !tbaa !137
  %51 = load ptr, ptr %3, align 8, !tbaa !105
  %52 = getelementptr inbounds nuw %struct.black_TWorker_, ptr %51, i32 0, i32 12
  %53 = load i64, ptr %52, align 8, !tbaa !137
  %54 = load ptr, ptr %3, align 8, !tbaa !105
  %55 = getelementptr inbounds nuw %struct.black_TWorker_, ptr %54, i32 0, i32 1
  %56 = load i32, ptr %55, align 4, !tbaa !117
  %57 = sub nsw i32 0, %56
  %58 = sext i32 %57 to i64
  %59 = and i64 %53, %58
  %60 = sub nsw i64 %50, %59
  %61 = load ptr, ptr %3, align 8, !tbaa !105
  %62 = getelementptr inbounds nuw %struct.black_TWorker_, ptr %61, i32 0, i32 2
  %63 = load i32, ptr %62, align 8, !tbaa !118
  %64 = sext i32 %63 to i64
  %65 = icmp sge i64 %60, %64
  %66 = zext i1 %65 to i32
  %67 = trunc i32 %66 to i8
  %68 = icmp ne i8 %67, 0
  br i1 %68, label %69, label %76

69:                                               ; preds = %47
  %70 = load ptr, ptr %4, align 8, !tbaa !141
  %71 = getelementptr inbounds nuw %struct.TProfile_, ptr %70, i32 0, i32 5
  %72 = load i16, ptr %71, align 4, !tbaa !138
  %73 = zext i16 %72 to i32
  %74 = or i32 %73, 16
  %75 = trunc i32 %74 to i16
  store i16 %75, ptr %71, align 4, !tbaa !138
  br label %76

76:                                               ; preds = %69, %47
  %77 = load ptr, ptr %4, align 8, !tbaa !141
  %78 = getelementptr inbounds nuw %struct.TProfile_, ptr %77, i32 0, i32 4
  %79 = load i32, ptr %78, align 8, !tbaa !144
  store i32 %79, ptr %6, align 4, !tbaa !15
  %80 = load i32, ptr %6, align 4, !tbaa !15
  %81 = load i32, ptr %5, align 4, !tbaa !15
  %82 = add nsw i32 %80, %81
  store i32 %82, ptr %7, align 4, !tbaa !15
  %83 = load ptr, ptr %4, align 8, !tbaa !141
  %84 = getelementptr inbounds nuw %struct.TProfile_, ptr %83, i32 0, i32 2
  store i32 0, ptr %84, align 8, !tbaa !150
  %85 = load ptr, ptr %4, align 8, !tbaa !141
  %86 = getelementptr inbounds nuw %struct.TProfile_, ptr %85, i32 0, i32 7
  %87 = getelementptr inbounds [1 x i64], ptr %86, i64 0, i64 0
  %88 = load i64, ptr %87, align 8, !tbaa !23
  %89 = load ptr, ptr %4, align 8, !tbaa !141
  %90 = getelementptr inbounds nuw %struct.TProfile_, ptr %89, i32 0, i32 6
  store i64 %88, ptr %90, align 8, !tbaa !147
  br label %150

91:                                               ; preds = %37
  %92 = load ptr, ptr %3, align 8, !tbaa !105
  %93 = getelementptr inbounds nuw %struct.black_TWorker_, ptr %92, i32 0, i32 12
  %94 = load i64, ptr %93, align 8, !tbaa !137
  %95 = load ptr, ptr %3, align 8, !tbaa !105
  %96 = getelementptr inbounds nuw %struct.black_TWorker_, ptr %95, i32 0, i32 1
  %97 = load i32, ptr %96, align 4, !tbaa !117
  %98 = sext i32 %97 to i64
  %99 = add nsw i64 %94, %98
  %100 = sub nsw i64 %99, 1
  %101 = load ptr, ptr %3, align 8, !tbaa !105
  %102 = getelementptr inbounds nuw %struct.black_TWorker_, ptr %101, i32 0, i32 1
  %103 = load i32, ptr %102, align 4, !tbaa !117
  %104 = sub nsw i32 0, %103
  %105 = sext i32 %104 to i64
  %106 = and i64 %100, %105
  %107 = load ptr, ptr %3, align 8, !tbaa !105
  %108 = getelementptr inbounds nuw %struct.black_TWorker_, ptr %107, i32 0, i32 12
  %109 = load i64, ptr %108, align 8, !tbaa !137
  %110 = sub nsw i64 %106, %109
  %111 = load ptr, ptr %3, align 8, !tbaa !105
  %112 = getelementptr inbounds nuw %struct.black_TWorker_, ptr %111, i32 0, i32 2
  %113 = load i32, ptr %112, align 8, !tbaa !118
  %114 = sext i32 %113 to i64
  %115 = icmp sge i64 %110, %114
  %116 = zext i1 %115 to i32
  %117 = trunc i32 %116 to i8
  %118 = icmp ne i8 %117, 0
  br i1 %118, label %119, label %126

119:                                              ; preds = %91
  %120 = load ptr, ptr %4, align 8, !tbaa !141
  %121 = getelementptr inbounds nuw %struct.TProfile_, ptr %120, i32 0, i32 5
  %122 = load i16, ptr %121, align 4, !tbaa !138
  %123 = zext i16 %122 to i32
  %124 = or i32 %123, 32
  %125 = trunc i32 %124 to i16
  store i16 %125, ptr %121, align 4, !tbaa !138
  br label %126

126:                                              ; preds = %119, %91
  %127 = load ptr, ptr %4, align 8, !tbaa !141
  %128 = getelementptr inbounds nuw %struct.TProfile_, ptr %127, i32 0, i32 4
  %129 = load i32, ptr %128, align 8, !tbaa !144
  %130 = add nsw i32 %129, 1
  store i32 %130, ptr %7, align 4, !tbaa !15
  %131 = load i32, ptr %7, align 4, !tbaa !15
  %132 = load i32, ptr %5, align 4, !tbaa !15
  %133 = sub nsw i32 %131, %132
  store i32 %133, ptr %6, align 4, !tbaa !15
  %134 = load i32, ptr %6, align 4, !tbaa !15
  %135 = load ptr, ptr %4, align 8, !tbaa !141
  %136 = getelementptr inbounds nuw %struct.TProfile_, ptr %135, i32 0, i32 4
  store i32 %134, ptr %136, align 8, !tbaa !144
  %137 = load i32, ptr %5, align 4, !tbaa !15
  %138 = sub nsw i32 %137, 1
  %139 = load ptr, ptr %4, align 8, !tbaa !141
  %140 = getelementptr inbounds nuw %struct.TProfile_, ptr %139, i32 0, i32 2
  store i32 %138, ptr %140, align 8, !tbaa !150
  %141 = load ptr, ptr %4, align 8, !tbaa !141
  %142 = getelementptr inbounds nuw %struct.TProfile_, ptr %141, i32 0, i32 7
  %143 = load i32, ptr %5, align 4, !tbaa !15
  %144 = sub nsw i32 %143, 1
  %145 = sext i32 %144 to i64
  %146 = getelementptr inbounds [1 x i64], ptr %142, i64 0, i64 %145
  %147 = load i64, ptr %146, align 8, !tbaa !23
  %148 = load ptr, ptr %4, align 8, !tbaa !141
  %149 = getelementptr inbounds nuw %struct.TProfile_, ptr %148, i32 0, i32 6
  store i64 %147, ptr %149, align 8, !tbaa !147
  br label %150

150:                                              ; preds = %126, %76
  %151 = load ptr, ptr %3, align 8, !tbaa !105
  %152 = load i32, ptr %6, align 4, !tbaa !15
  %153 = load i32, ptr %7, align 4, !tbaa !15
  %154 = call signext i8 @Insert_Y_Turns(ptr noundef %151, i32 noundef %152, i32 noundef %153)
  %155 = icmp ne i8 %154, 0
  br i1 %155, label %156, label %157

156:                                              ; preds = %150
  store i8 1, ptr %2, align 1
  store i32 1, ptr %8, align 4
  br label %182

157:                                              ; preds = %150
  %158 = load ptr, ptr %3, align 8, !tbaa !105
  %159 = getelementptr inbounds nuw %struct.black_TWorker_, ptr %158, i32 0, i32 19
  %160 = load ptr, ptr %159, align 8, !tbaa !135
  %161 = icmp ne ptr %160, null
  br i1 %161, label %166, label %162

162:                                              ; preds = %157
  %163 = load ptr, ptr %4, align 8, !tbaa !141
  %164 = load ptr, ptr %3, align 8, !tbaa !105
  %165 = getelementptr inbounds nuw %struct.black_TWorker_, ptr %164, i32 0, i32 19
  store ptr %163, ptr %165, align 8, !tbaa !135
  br label %166

166:                                              ; preds = %162, %157
  %167 = load ptr, ptr %3, align 8, !tbaa !105
  %168 = getelementptr inbounds nuw %struct.black_TWorker_, ptr %167, i32 0, i32 19
  %169 = load ptr, ptr %168, align 8, !tbaa !135
  %170 = load ptr, ptr %4, align 8, !tbaa !141
  %171 = getelementptr inbounds nuw %struct.TProfile_, ptr %170, i32 0, i32 1
  store ptr %169, ptr %171, align 8, !tbaa !149
  %172 = load ptr, ptr %3, align 8, !tbaa !105
  %173 = getelementptr inbounds nuw %struct.black_TWorker_, ptr %172, i32 0, i32 8
  %174 = load ptr, ptr %173, align 8, !tbaa !129
  %175 = load ptr, ptr %4, align 8, !tbaa !141
  %176 = getelementptr inbounds nuw %struct.TProfile_, ptr %175, i32 0, i32 0
  store ptr %174, ptr %176, align 8, !tbaa !145
  %177 = load ptr, ptr %3, align 8, !tbaa !105
  %178 = getelementptr inbounds nuw %struct.black_TWorker_, ptr %177, i32 0, i32 15
  %179 = load i16, ptr %178, align 8, !tbaa !132
  %180 = add i16 %179, 1
  store i16 %180, ptr %178, align 8, !tbaa !132
  br label %181

181:                                              ; preds = %166, %31
  store i8 0, ptr %2, align 1
  store i32 1, ptr %8, align 4
  br label %182

182:                                              ; preds = %181, %156, %28
  call void @llvm.lifetime.end.p0(i64 4, ptr %7) #5
  call void @llvm.lifetime.end.p0(i64 4, ptr %6) #5
  call void @llvm.lifetime.end.p0(i64 4, ptr %5) #5
  call void @llvm.lifetime.end.p0(i64 8, ptr %4) #5
  %183 = load i8, ptr %2, align 1
  ret i8 %183
}