; Function Attrs: nofree norecurse nosync nounwind memory(readwrite, inaccessiblemem: none) uwtable
define internal fastcc signext range(i8 0, 2) i8 @End_Profile(ptr noundef nonnull captures(none) %0) unnamed_addr #7 {
  %2 = getelementptr inbounds nuw i8, ptr %0, i64 104
  %3 = load ptr, ptr %2, align 8, !tbaa !117
  %4 = getelementptr inbounds nuw i8, ptr %0, i64 48
  %5 = load ptr, ptr %4, align 8, !tbaa !100
  %6 = getelementptr inbounds nuw i8, ptr %3, i64 40
  %7 = ptrtoint ptr %5 to i64
  %8 = ptrtoint ptr %6 to i64
  %9 = sub i64 %7, %8
  %10 = lshr exact i64 %9, 3
  %11 = trunc i64 %10 to i32
  %12 = icmp slt i32 %11, 0
  br i1 %12, label %13, label %15

13:                                               ; preds = %1
  %14 = getelementptr inbounds nuw i8, ptr %0, i64 56
  store i32 99, ptr %14, align 8, !tbaa !99
  br label %110

15:                                               ; preds = %1
  %.not = icmp eq i32 %11, 0
  br i1 %.not, label %110, label %16

16:                                               ; preds = %15
  %17 = getelementptr inbounds nuw i8, ptr %3, i64 20
  store i32 %11, ptr %17, align 4, !tbaa !129
  %18 = getelementptr inbounds nuw i8, ptr %3, i64 28
  %19 = load i16, ptr %18, align 4, !tbaa !115
  %20 = and i16 %19, 8
  %.not50 = icmp eq i16 %20, 0
  %21 = getelementptr inbounds nuw i8, ptr %0, i64 72
  %22 = load i64, ptr %21, align 8, !tbaa !112
  %23 = getelementptr inbounds nuw i8, ptr %0, i64 4
  %24 = load i32, ptr %23, align 4, !tbaa !88
  br i1 %.not50, label %38, label %25

25:                                               ; preds = %16
  %26 = add i32 %24, -1
  %.not52 = sext i32 %26 to i64
  %27 = and i64 %22, %.not52
  %28 = getelementptr inbounds nuw i8, ptr %0, i64 8
  %29 = load i32, ptr %28, align 8, !tbaa !89
  %30 = sext i32 %29 to i64
  %.not53 = icmp slt i64 %27, %30
  br i1 %.not53, label %33, label %31

31:                                               ; preds = %25
  %32 = or i16 %19, 16
  store i16 %32, ptr %18, align 4, !tbaa !115
  br label %33

33:                                               ; preds = %31, %25
  %34 = getelementptr inbounds nuw i8, ptr %3, i64 24
  %35 = load i32, ptr %34, align 8, !tbaa !125
  %36 = add nsw i32 %35, %11
  %37 = getelementptr inbounds nuw i8, ptr %3, i64 16
  store i32 0, ptr %37, align 8, !tbaa !130
  br label %60

38:                                               ; preds = %16
  %39 = sext i32 %24 to i64
  %40 = add i64 %22, -1
  %41 = add i64 %40, %39
  %42 = sub nsw i32 0, %24
  %43 = sext i32 %42 to i64
  %44 = and i64 %41, %43
  %45 = sub nsw i64 %44, %22
  %46 = getelementptr inbounds nuw i8, ptr %0, i64 8
  %47 = load i32, ptr %46, align 8, !tbaa !89
  %48 = sext i32 %47 to i64
  %.not51 = icmp slt i64 %45, %48
  br i1 %.not51, label %51, label %49

49:                                               ; preds = %38
  %50 = or i16 %19, 32
  store i16 %50, ptr %18, align 4, !tbaa !115
  br label %51

51:                                               ; preds = %49, %38
  %52 = getelementptr inbounds nuw i8, ptr %3, i64 24
  %53 = load i32, ptr %52, align 8, !tbaa !125
  %54 = add nsw i32 %53, 1
  %55 = sub nsw i32 %54, %11
  store i32 %55, ptr %52, align 8, !tbaa !125
  %56 = add nsw i32 %11, -1
  %57 = getelementptr inbounds nuw i8, ptr %3, i64 16
  store i32 %56, ptr %57, align 8, !tbaa !130
  %58 = zext nneg i32 %56 to i64
  %59 = getelementptr inbounds nuw [1 x i64], ptr %6, i64 0, i64 %58
  br label %60

60:                                               ; preds = %51, %33
  %.sink.in = phi ptr [ %59, %51 ], [ %6, %33 ]
  %.047 = phi i32 [ %55, %51 ], [ %35, %33 ]
  %.0 = phi i32 [ %54, %51 ], [ %36, %33 ]
  %.sink = load i64, ptr %.sink.in, align 8, !tbaa !124
  %61 = getelementptr inbounds nuw i8, ptr %3, i64 32
  store i64 %.sink, ptr %61, align 8, !tbaa !126
  %62 = getelementptr inbounds nuw i8, ptr %0, i64 100
  %63 = load i32, ptr %62, align 4, !tbaa !102
  %64 = getelementptr inbounds nuw i8, ptr %0, i64 40
  %65 = load ptr, ptr %64, align 8, !tbaa !101
  %66 = icmp eq i32 %63, 0
  %.pre.i = sext i32 %.0 to i64
  br i1 %66, label %._crit_edge.i, label %67

67:                                               ; preds = %60
  %68 = sext i32 %63 to i64
  %69 = getelementptr inbounds i64, ptr %65, i64 %68
  %70 = load i64, ptr %69, align 8, !tbaa !124
  %71 = icmp slt i64 %70, %.pre.i
  br i1 %71, label %._crit_edge.i, label %73

._crit_edge.i:                                    ; preds = %67, %60
  %.pre-phi44.i = phi i64 [ %68, %67 ], [ 0, %60 ]
  %72 = getelementptr inbounds i64, ptr %65, i64 %.pre-phi44.i
  store i64 %.pre.i, ptr %72, align 8, !tbaa !124
  br label %73

73:                                               ; preds = %._crit_edge.i, %67
  %.pre-phi.i = phi i64 [ %.pre-phi44.i, %._crit_edge.i ], [ %68, %67 ]
  %74 = sext i32 %.047 to i64
  %75 = zext i32 %63 to i64
  %76 = xor i64 %75, -1
  %77 = add nsw i64 %.pre-phi.i, %76
  br label %78

78:                                               ; preds = %80, %73
  %indvars.iv.i = phi i64 [ %indvars.iv.next.i, %80 ], [ %.pre-phi.i, %73 ]
  %79 = icmp eq i64 %indvars.iv.i, 0
  br i1 %79, label %.critedge.thread.i, label %80

80:                                               ; preds = %78
  %indvars.iv.next.i = add nsw i64 %indvars.iv.i, -1
  %81 = getelementptr inbounds i64, ptr %65, i64 %indvars.iv.next.i
  %82 = load i64, ptr %81, align 8, !tbaa !124
  %83 = icmp sgt i64 %82, %74
  br i1 %83, label %78, label %.critedge.i, !llvm.loop !137

.critedge.i:                                      ; preds = %80
  %84 = icmp slt i64 %indvars.iv.i, 1
  br i1 %84, label %.critedge.thread.i, label %85

85:                                               ; preds = %.critedge.i
  %86 = and i64 %indvars.iv.next.i, 4294967295
  %87 = getelementptr inbounds nuw i64, ptr %65, i64 %86
  %88 = load i64, ptr %87, align 8, !tbaa !124
  %89 = icmp slt i64 %88, %74
  br i1 %89, label %.critedge.thread.i, label %100

.critedge.thread.i:                               ; preds = %78, %85, %.critedge.i
  %.in.i = phi i64 [ %indvars.iv.next.i, %85 ], [ %indvars.iv.next.i, %.critedge.i ], [ %77, %78 ]
  %90 = getelementptr inbounds i8, ptr %65, i64 -8
  store ptr %90, ptr %64, align 8, !tbaa !101
  %.not33.i = icmp ugt ptr %90, %5
  br i1 %.not33.i, label %.preheader.preheader.i, label %Insert_Y_Turns.exit

.preheader.preheader.i:                           ; preds = %.critedge.thread.i
  %sext.i = shl i64 %.in.i, 32
  %91 = ashr exact i64 %sext.i, 32
  br label %.preheader.i

.preheader.i:                                     ; preds = %.preheader.i, %.preheader.preheader.i
  %indvars.iv39.i = phi i64 [ %91, %.preheader.preheader.i ], [ %indvars.iv.next40.i, %.preheader.i ]
  %.029.i = phi i32 [ %.047, %.preheader.preheader.i ], [ %94, %.preheader.i ]
  %92 = getelementptr inbounds i64, ptr %65, i64 %indvars.iv39.i
  %93 = load i64, ptr %92, align 8, !tbaa !124
  %94 = trunc i64 %93 to i32
  %95 = sext i32 %.029.i to i64
  store i64 %95, ptr %92, align 8, !tbaa !124
  %indvars.iv.next40.i = add nsw i64 %indvars.iv39.i, -1
  %96 = icmp sgt i64 %indvars.iv39.i, -1
  br i1 %96, label %.preheader.i, label %97, !llvm.loop !138

97:                                               ; preds = %.preheader.i
  %98 = add nsw i32 %63, 1
  store i32 %98, ptr %62, align 4, !tbaa !102
  br label %100

Insert_Y_Turns.exit:                              ; preds = %.critedge.thread.i
  %99 = getelementptr inbounds nuw i8, ptr %0, i64 56
  store i32 98, ptr %99, align 8, !tbaa !99
  br label %110

100:                                              ; preds = %97, %85
  %101 = getelementptr inbounds nuw i8, ptr %0, i64 120
  %102 = load ptr, ptr %101, align 8, !tbaa !106
  %.not55 = icmp eq ptr %102, null
  br i1 %.not55, label %103, label %104

103:                                              ; preds = %100
  store ptr %3, ptr %101, align 8, !tbaa !106
  br label %104

104:                                              ; preds = %103, %100
  %105 = phi ptr [ %3, %103 ], [ %102, %100 ]
  %106 = getelementptr inbounds nuw i8, ptr %3, i64 8
  store ptr %105, ptr %106, align 8, !tbaa !121
  store ptr %5, ptr %3, align 8, !tbaa !120
  %107 = getelementptr inbounds nuw i8, ptr %0, i64 96
  %108 = load i16, ptr %107, align 8, !tbaa !103
  %109 = add i16 %108, 1
  store i16 %109, ptr %107, align 8, !tbaa !103
  br label %110

110:                                              ; preds = %Insert_Y_Turns.exit, %15, %104, %13
  %.048 = phi i8 [ 1, %13 ], [ 1, %Insert_Y_Turns.exit ], [ 0, %104 ], [ 0, %15 ]
  ret i8 %.048
}